target datalayout = "e-m:e-p270:32:32-p271:32:32-p272:64:64-i64:64-i128:128-f80:128-n8:16:32:64-S128"
target triple = "x86_64-pc-linux-gnu"

%class.G1CodeRootSet = type { ptr }
%class.G1CodeRootSetHashTable = type { [8 x i8], %class.ConcurrentHashTable, %"class.ConcurrentHashTable<G1CodeRootSetHashTableConfig, MEMFLAGS::mtGC>::ScanTask", i64 }
%class.ConcurrentHashTable = type { ptr, ptr, ptr, ptr, i64, i64, i64, i8, ptr, ptr, ptr }
%"class.ConcurrentHashTable<G1CodeRootSetHashTableConfig, MEMFLAGS::mtGC>::ScanTask" = type { %"class.ConcurrentHashTable<G1CodeRootSetHashTableConfig, MEMFLAGS::mtGC>::BucketsOperation.base", %"class.ConcurrentHashTable<G1CodeRootSetHashTableConfig, MEMFLAGS::mtGC>::BucketsOperation::InternalTableClaimer" }
%"class.ConcurrentHashTable<G1CodeRootSetHashTableConfig, MEMFLAGS::mtGC>::BucketsOperation.base" = type <{ ptr, %"class.ConcurrentHashTable<G1CodeRootSetHashTableConfig, MEMFLAGS::mtGC>::BucketsOperation::InternalTableClaimer", i8 }>
%"class.ConcurrentHashTable<G1CodeRootSetHashTableConfig, MEMFLAGS::mtGC>::BucketsOperation::InternalTableClaimer" = type { i64, i64, i64 }
%class.anon.25 = type { i8 }
%"struct.Atomic::PlatformLoad" = type { i8 }
%"struct.Atomic::PlatformOrderedLoad" = type { i8 }
%class.ScopedFence = type { ptr }
%"struct.Atomic::LoadImpl.5" = type { i8 }
%"struct.Atomic::LoadImpl.6" = type { i8 }
%"class.ConcurrentHashTable<G1CodeRootSetHashTableConfig, MEMFLAGS::mtGC>::InternalTable" = type { ptr, i64, i64, i64 }
%"class.ConcurrentHashTable<G1CodeRootSetHashTableConfig, MEMFLAGS::mtGC>::BucketsOperation" = type <{ ptr, %"class.ConcurrentHashTable<G1CodeRootSetHashTableConfig, MEMFLAGS::mtGC>::BucketsOperation::InternalTableClaimer", i8, [7 x i8] }>

; Function Attrs: mustprogress nounwind uwtable
define internal void @_ZL16compiler_barrierv() #1 {
  call void asm sideeffect "", "~{memory},~{dirflag},~{fpsr},~{flags}"() #7, !srcloc !13
  ret void
}

; Function Attrs: mustprogress nounwind uwtable
define linkonce_odr hidden void @_ZN11OrderAccess7acquireEv() #1 comdat align 2 {
  call void @_ZL16compiler_barrierv()
  ret void
}

; Function Attrs: mustprogress nounwind uwtable
define linkonce_odr hidden void @_ZN18ScopedFenceGeneralIL15ScopedFenceType0EE7postfixEv(ptr noundef nonnull align 1 dereferenceable(1) %0) #1 comdat align 2 {
  %2 = alloca ptr, align 8
  store ptr %0, ptr %2, align 8
  call void @_ZN11OrderAccess7acquireEv()
  ret void
}

; Function Attrs: mustprogress nounwind uwtable
define linkonce_odr hidden noundef ptr @_ZNK6Atomic12PlatformLoadILm8EEclIPN19ConcurrentHashTableI28G1CodeRootSetHashTableConfigL8MEMFLAGS5EE13InternalTableEEET_PVKS9_(ptr noundef nonnull align 1 dereferenceable(1) %0, ptr noundef %1) #1 comdat align 2 {
  %3 = alloca ptr, align 8
  %4 = alloca ptr, align 8
  store ptr %0, ptr %3, align 8
  store ptr %1, ptr %4, align 8
  %5 = load ptr, ptr %4, align 8
  %6 = load volatile ptr, ptr %5, align 8
  ret ptr %6
}

; Function Attrs: mustprogress nounwind uwtable
define linkonce_odr hidden void @_ZN18ScopedFenceGeneralIL15ScopedFenceType0EE6prefixEv(ptr noundef nonnull align 1 dereferenceable(1) %0) #1 comdat align 2 {
  %2 = alloca ptr, align 8
  store ptr %0, ptr %2, align 8
  ret void
}

; Function Attrs: mustprogress nounwind uwtable
define linkonce_odr hidden void @_ZN11ScopedFenceIL15ScopedFenceType0EE7postfixEv(ptr noundef nonnull align 8 dereferenceable(8) %0) #1 comdat align 2 {
  %2 = alloca ptr, align 8
  store ptr %0, ptr %2, align 8
  %3 = load ptr, ptr %2, align 8
  call void @_ZN18ScopedFenceGeneralIL15ScopedFenceType0EE7postfixEv(ptr noundef nonnull align 1 dereferenceable(1) %3)
  ret void
}

; Function Attrs: mustprogress nounwind uwtable
define linkonce_odr hidden noundef ptr @_ZNK6Atomic8LoadImplIPN19ConcurrentHashTableI28G1CodeRootSetHashTableConfigL8MEMFLAGS5EE13InternalTableENS_12PlatformLoadILm8EEEvEclEPVKS6_(ptr noundef nonnull align 1 dereferenceable(1) %0, ptr noundef %1) #1 comdat align 2 {
  %3 = alloca ptr, align 8
  %4 = alloca ptr, align 8
  %5 = alloca %"struct.Atomic::PlatformLoad", align 1
  store ptr %0, ptr %3, align 8
  store ptr %1, ptr %4, align 8
  %6 = load ptr, ptr %4, align 8
  %7 = call noundef ptr @_ZNK6Atomic12PlatformLoadILm8EEclIPN19ConcurrentHashTableI28G1CodeRootSetHashTableConfigL8MEMFLAGS5EE13InternalTableEEET_PVKS9_(ptr noundef nonnull align 1 dereferenceable(1) %5, ptr noundef %6)
  ret ptr %7
}

; Function Attrs: mustprogress nounwind uwtable
define linkonce_odr hidden void @_ZN11ScopedFenceIL15ScopedFenceType0EE6prefixEv(ptr noundef nonnull align 8 dereferenceable(8) %0) #1 comdat align 2 {
  %2 = alloca ptr, align 8
  store ptr %0, ptr %2, align 8
  %3 = load ptr, ptr %2, align 8
  call void @_ZN18ScopedFenceGeneralIL15ScopedFenceType0EE6prefixEv(ptr noundef nonnull align 1 dereferenceable(1) %3)
  ret void
}

; Function Attrs: mustprogress nounwind uwtable
define linkonce_odr hidden void @_ZN11ScopedFenceIL15ScopedFenceType0EED2Ev(ptr noundef nonnull align 8 dereferenceable(8) %0) unnamed_addr #1 comdat align 2 {
  %2 = alloca ptr, align 8
  store ptr %0, ptr %2, align 8
  %3 = load ptr, ptr %2, align 8
  call void @_ZN11ScopedFenceIL15ScopedFenceType0EE7postfixEv(ptr noundef nonnull align 8 dereferenceable(8) %3)
  ret void
}

; Function Attrs: mustprogress nounwind uwtable
define linkonce_odr hidden noundef ptr @_ZN6Atomic4loadIPN19ConcurrentHashTableI28G1CodeRootSetHashTableConfigL8MEMFLAGS5EE13InternalTableEEET_PVKS7_(ptr noundef %0) #1 comdat align 2 {
  %2 = alloca ptr, align 8
  %3 = alloca %"struct.Atomic::LoadImpl.6", align 1
  store ptr %0, ptr %2, align 8
  %4 = load ptr, ptr %2, align 8
  %5 = call noundef ptr @_ZNK6Atomic8LoadImplIPN19ConcurrentHashTableI28G1CodeRootSetHashTableConfigL8MEMFLAGS5EE13InternalTableENS_12PlatformLoadILm8EEEvEclEPVKS6_(ptr noundef nonnull align 1 dereferenceable(1) %3, ptr noundef %4)
  ret ptr %5
}

; Function Attrs: mustprogress nounwind uwtable
define linkonce_odr hidden void @_ZN11ScopedFenceIL15ScopedFenceType0EEC2EPv(ptr noundef nonnull align 8 dereferenceable(8) %0, ptr noundef %1) unnamed_addr #1 comdat align 2 {
  %3 = alloca ptr, align 8
  %4 = alloca ptr, align 8
  store ptr %0, ptr %3, align 8
  store ptr %1, ptr %4, align 8
  %5 = load ptr, ptr %3, align 8
  %6 = getelementptr inbounds %class.ScopedFence, ptr %5, i32 0, i32 0
  %7 = load ptr, ptr %4, align 8
  store ptr %7, ptr %6, align 8
  call void @_ZN11ScopedFenceIL15ScopedFenceType0EE6prefixEv(ptr noundef nonnull align 8 dereferenceable(8) %5)
  ret void
}

; Function Attrs: mustprogress nounwind uwtable
define linkonce_odr hidden noundef ptr @_ZNK6Atomic19PlatformOrderedLoadILm8EL15ScopedFenceType0EEclIPN19ConcurrentHashTableI28G1CodeRootSetHashTableConfigL8MEMFLAGS5EE13InternalTableEEET_PVKSA_(ptr noundef nonnull align 1 dereferenceable(1) %0, ptr noundef %1) #1 comdat align 2 {
  %3 = alloca ptr, align 8
  %4 = alloca ptr, align 8
  %5 = alloca %class.ScopedFence, align 8
  store ptr %0, ptr %3, align 8
  store ptr %1, ptr %4, align 8
  %6 = load ptr, ptr %4, align 8
  call void @_ZN11ScopedFenceIL15ScopedFenceType0EEC2EPv(ptr noundef nonnull align 8 dereferenceable(8) %5, ptr noundef %6)
  %7 = load ptr, ptr %4, align 8
  %8 = call noundef ptr @_ZN6Atomic4loadIPN19ConcurrentHashTableI28G1CodeRootSetHashTableConfigL8MEMFLAGS5EE13InternalTableEEET_PVKS7_(ptr noundef %7)
  call void @_ZN11ScopedFenceIL15ScopedFenceType0EED2Ev(ptr noundef nonnull align 8 dereferenceable(8) %5) #7
  ret ptr %8
}

; Function Attrs: mustprogress nounwind uwtable
define linkonce_odr hidden noundef ptr @_ZNK6Atomic8LoadImplIPN19ConcurrentHashTableI28G1CodeRootSetHashTableConfigL8MEMFLAGS5EE13InternalTableENS_19PlatformOrderedLoadILm8EL15ScopedFenceType0EEEvEclEPVKS6_(ptr noundef nonnull align 1 dereferenceable(1) %0, ptr noundef %1) #1 comdat align 2 {
  %3 = alloca ptr, align 8
  %4 = alloca ptr, align 8
  %5 = alloca %"struct.Atomic::PlatformOrderedLoad", align 1
  store ptr %0, ptr %3, align 8
  store ptr %1, ptr %4, align 8
  %6 = load ptr, ptr %4, align 8
  %7 = call noundef ptr @_ZNK6Atomic19PlatformOrderedLoadILm8EL15ScopedFenceType0EEclIPN19ConcurrentHashTableI28G1CodeRootSetHashTableConfigL8MEMFLAGS5EE13InternalTableEEET_PVKSA_(ptr noundef nonnull align 1 dereferenceable(1) %5, ptr noundef %6)
  ret ptr %7
}

; Function Attrs: mustprogress nounwind uwtable
define linkonce_odr hidden noundef i64 @_Z4MIN2ImET_S0_S0_(i64 noundef %0, i64 noundef %1) #1 comdat {
  %3 = alloca i64, align 8
  %4 = alloca i64, align 8
  store i64 %0, ptr %3, align 8
  store i64 %1, ptr %4, align 8
  %5 = load i64, ptr %3, align 8
  %6 = load i64, ptr %4, align 8
  %7 = icmp ult i64 %5, %6
  br i1 %7, label %8, label %10

8:                                                ; preds = %2
  %9 = load i64, ptr %3, align 8
  br label %12

10:                                               ; preds = %2
  %11 = load i64, ptr %4, align 8
  br label %12

12:                                               ; preds = %10, %8
  %13 = phi i64 [ %9, %8 ], [ %11, %10 ]
  ret i64 %13
}

; Function Attrs: mustprogress nounwind uwtable
define linkonce_odr hidden noundef ptr @_ZN6Atomic12load_acquireIPN19ConcurrentHashTableI28G1CodeRootSetHashTableConfigL8MEMFLAGS5EE13InternalTableEEET_PVKS7_(ptr noundef %0) #1 comdat align 2 {
  %2 = alloca ptr, align 8
  %3 = alloca %"struct.Atomic::LoadImpl.5", align 1
  store ptr %0, ptr %2, align 8
  %4 = load ptr, ptr %2, align 8
  %5 = call noundef ptr @_ZNK6Atomic8LoadImplIPN19ConcurrentHashTableI28G1CodeRootSetHashTableConfigL8MEMFLAGS5EE13InternalTableENS_19PlatformOrderedLoadILm8EL15ScopedFenceType0EEEvEclEPVKS6_(ptr noundef nonnull align 1 dereferenceable(1) %3, ptr noundef %4)
  ret ptr %5
}

; Function Attrs: mustprogress nounwind uwtable
define linkonce_odr hidden noundef ptr @_ZNK19ConcurrentHashTableI28G1CodeRootSetHashTableConfigL8MEMFLAGS5EE13get_new_tableEv(ptr noundef nonnull align 8 dereferenceable(88) %0) #1 comdat align 2 {
  %2 = alloca ptr, align 8
  store ptr %0, ptr %2, align 8
  %3 = load ptr, ptr %2, align 8
  %4 = getelementptr inbounds %class.ConcurrentHashTable, ptr %3, i32 0, i32 3
  %5 = call noundef ptr @_ZN6Atomic12load_acquireIPN19ConcurrentHashTableI28G1CodeRootSetHashTableConfigL8MEMFLAGS5EE13InternalTableEEET_PVKS7_(ptr noundef %4)
  ret ptr %5
}

; Function Attrs: mustprogress nounwind uwtable
define linkonce_odr hidden void @_ZN19ConcurrentHashTableI28G1CodeRootSetHashTableConfigL8MEMFLAGS5EE16BucketsOperation20InternalTableClaimer3setEmPNS2_13InternalTableE(ptr noundef nonnull align 8 dereferenceable(24) %0, i64 noundef %1, ptr noundef %2) #1 comdat align 2 {
  %4 = alloca ptr, align 8
  %5 = alloca i64, align 8
  %6 = alloca ptr, align 8
  store ptr %0, ptr %4, align 8
  store i64 %1, ptr %5, align 8
  store ptr %2, ptr %6, align 8
  %7 = load ptr, ptr %4, align 8
  %8 = getelementptr inbounds %"class.ConcurrentHashTable<G1CodeRootSetHashTableConfig, MEMFLAGS::mtGC>::BucketsOperation::InternalTableClaimer", ptr %7, i32 0, i32 0
  store volatile i64 0, ptr %8, align 8
  %9 = load ptr, ptr %6, align 8
  %10 = getelementptr inbounds %"class.ConcurrentHashTable<G1CodeRootSetHashTableConfig, MEMFLAGS::mtGC>::InternalTable", ptr %9, i32 0, i32 2
  %11 = load i64, ptr %10, align 8
  %12 = getelementptr inbounds %"class.ConcurrentHashTable<G1CodeRootSetHashTableConfig, MEMFLAGS::mtGC>::BucketsOperation::InternalTableClaimer", ptr %7, i32 0, i32 1
  store i64 %11, ptr %12, align 8
  %13 = load i64, ptr %5, align 8
  %14 = getelementptr inbounds %"class.ConcurrentHashTable<G1CodeRootSetHashTableConfig, MEMFLAGS::mtGC>::BucketsOperation::InternalTableClaimer", ptr %7, i32 0, i32 1
  %15 = load i64, ptr %14, align 8
  %16 = call noundef i64 @_Z4MIN2ImET_S0_S0_(i64 noundef %13, i64 noundef %15)
  %17 = getelementptr inbounds %"class.ConcurrentHashTable<G1CodeRootSetHashTableConfig, MEMFLAGS::mtGC>::BucketsOperation::InternalTableClaimer", ptr %7, i32 0, i32 2
  store i64 %16, ptr %17, align 8
  ret void
}

; Function Attrs: mustprogress nounwind uwtable
define linkonce_odr hidden noundef ptr @_ZNK19ConcurrentHashTableI28G1CodeRootSetHashTableConfigL8MEMFLAGS5EE9get_tableEv(ptr noundef nonnull align 8 dereferenceable(88) %0) #1 comdat align 2 {
  %2 = alloca ptr, align 8
  store ptr %0, ptr %2, align 8
  %3 = load ptr, ptr %2, align 8
  %4 = getelementptr inbounds %class.ConcurrentHashTable, ptr %3, i32 0, i32 2
  %5 = call noundef ptr @_ZN6Atomic12load_acquireIPN19ConcurrentHashTableI28G1CodeRootSetHashTableConfigL8MEMFLAGS5EE13InternalTableEEET_PVKS7_(ptr noundef %4)
  ret ptr %5
}

; Function Attrs: mustprogress nounwind uwtable
define linkonce_odr hidden void @_ZN19ConcurrentHashTableI28G1CodeRootSetHashTableConfigL8MEMFLAGS5EE16BucketsOperation20InternalTableClaimerC2EmPNS2_13InternalTableE(ptr noundef nonnull align 8 dereferenceable(24) %0, i64 noundef %1, ptr noundef %2) unnamed_addr #1 comdat align 2 {
  %4 = alloca ptr, align 8
  %5 = alloca i64, align 8
  %6 = alloca ptr, align 8
  store ptr %0, ptr %4, align 8
  store i64 %1, ptr %5, align 8
  store ptr %2, ptr %6, align 8
  %7 = load ptr, ptr %4, align 8
  call void @_ZN19ConcurrentHashTableI28G1CodeRootSetHashTableConfigL8MEMFLAGS5EE16BucketsOperation20InternalTableClaimerC2Ev(ptr noundef nonnull align 8 dereferenceable(24) %7)
  %8 = load i64, ptr %5, align 8
  %9 = load ptr, ptr %6, align 8
  call void @_ZN19ConcurrentHashTableI28G1CodeRootSetHashTableConfigL8MEMFLAGS5EE16BucketsOperation20InternalTableClaimer3setEmPNS2_13InternalTableE(ptr noundef nonnull align 8 dereferenceable(24) %7, i64 noundef %8, ptr noundef %9)
  ret void
}

; Function Attrs: mustprogress nounwind uwtable
define linkonce_odr hidden void @_ZN19ConcurrentHashTableI28G1CodeRootSetHashTableConfigL8MEMFLAGS5EE8ScanTask3setEPS2_m(ptr noundef nonnull align 8 dereferenceable(64) %0, ptr noundef %1, i64 noundef %2) #1 comdat align 2 {
  %4 = alloca ptr, align 8
  %5 = alloca ptr, align 8
  %6 = alloca i64, align 8
  %7 = alloca ptr, align 8
  store ptr %0, ptr %4, align 8
  store ptr %1, ptr %5, align 8
  store i64 %2, ptr %6, align 8
  %8 = load ptr, ptr %4, align 8
  %9 = getelementptr inbounds %"class.ConcurrentHashTable<G1CodeRootSetHashTableConfig, MEMFLAGS::mtGC>::BucketsOperation", ptr %8, i32 0, i32 1
  %10 = load i64, ptr %6, align 8
  %11 = load ptr, ptr %5, align 8
  %12 = call noundef ptr @_ZNK19ConcurrentHashTableI28G1CodeRootSetHashTableConfigL8MEMFLAGS5EE9get_tableEv(ptr noundef nonnull align 8 dereferenceable(88) %11)
  call void @_ZN19ConcurrentHashTableI28G1CodeRootSetHashTableConfigL8MEMFLAGS5EE16BucketsOperation20InternalTableClaimer3setEmPNS2_13InternalTableE(ptr noundef nonnull align 8 dereferenceable(24) %9, i64 noundef %10, ptr noundef %12)
  %13 = load ptr, ptr %5, align 8
  %14 = call noundef ptr @_ZNK19ConcurrentHashTableI28G1CodeRootSetHashTableConfigL8MEMFLAGS5EE13get_new_tableEv(ptr noundef nonnull align 8 dereferenceable(88) %13)
  store ptr %14, ptr %7, align 8
  %15 = load ptr, ptr %7, align 8
  %16 = icmp eq ptr %15, null
  br i1 %16, label %17, label %18

17:                                               ; preds = %3
  br label %22

18:                                               ; preds = %3
  %19 = getelementptr inbounds %"class.ConcurrentHashTable<G1CodeRootSetHashTableConfig, MEMFLAGS::mtGC>::ScanTask", ptr %8, i32 0, i32 1
  %20 = load i64, ptr %6, align 8
  %21 = load ptr, ptr %7, align 8
  call void @_ZN19ConcurrentHashTableI28G1CodeRootSetHashTableConfigL8MEMFLAGS5EE16BucketsOperation20InternalTableClaimer3setEmPNS2_13InternalTableE(ptr noundef nonnull align 8 dereferenceable(24) %19, i64 noundef %20, ptr noundef %21)
  br label %22

22:                                               ; preds = %18, %17
  ret void
}

; Function Attrs: mustprogress nounwind uwtable
define linkonce_odr hidden void @_ZN19ConcurrentHashTableI28G1CodeRootSetHashTableConfigL8MEMFLAGS5EE16BucketsOperation20InternalTableClaimerC2Ev(ptr noundef nonnull align 8 dereferenceable(24) %0) unnamed_addr #1 comdat align 2 {
  %2 = alloca ptr, align 8
  store ptr %0, ptr %2, align 8
  %3 = load ptr, ptr %2, align 8
  %4 = getelementptr inbounds %"class.ConcurrentHashTable<G1CodeRootSetHashTableConfig, MEMFLAGS::mtGC>::BucketsOperation::InternalTableClaimer", ptr %3, i32 0, i32 0
  store volatile i64 0, ptr %4, align 8
  %5 = getelementptr inbounds %"class.ConcurrentHashTable<G1CodeRootSetHashTableConfig, MEMFLAGS::mtGC>::BucketsOperation::InternalTableClaimer", ptr %3, i32 0, i32 1
  store i64 0, ptr %5, align 8
  %6 = getelementptr inbounds %"class.ConcurrentHashTable<G1CodeRootSetHashTableConfig, MEMFLAGS::mtGC>::BucketsOperation::InternalTableClaimer", ptr %3, i32 0, i32 2
  store i64 0, ptr %6, align 8
  ret void
}

; Function Attrs: mustprogress nounwind uwtable
define linkonce_odr hidden void @_ZN19ConcurrentHashTableI28G1CodeRootSetHashTableConfigL8MEMFLAGS5EE16BucketsOperationC2EPS2_b(ptr noundef nonnull align 8 dereferenceable(33) %0, ptr noundef %1, i1 noundef zeroext %2) unnamed_addr #1 comdat align 2 {
  %4 = alloca ptr, align 8
  %5 = alloca ptr, align 8
  %6 = alloca i8, align 1
  store ptr %0, ptr %4, align 8
  store ptr %1, ptr %5, align 8
  %7 = zext i1 %2 to i8
  store i8 %7, ptr %6, align 1
  %8 = load ptr, ptr %4, align 8
  %9 = getelementptr inbounds %"class.ConcurrentHashTable<G1CodeRootSetHashTableConfig, MEMFLAGS::mtGC>::BucketsOperation", ptr %8, i32 0, i32 0
  %10 = load ptr, ptr %5, align 8
  store ptr %10, ptr %9, align 8
  %11 = getelementptr inbounds %"class.ConcurrentHashTable<G1CodeRootSetHashTableConfig, MEMFLAGS::mtGC>::BucketsOperation", ptr %8, i32 0, i32 1
  %12 = getelementptr inbounds %"class.ConcurrentHashTable<G1CodeRootSetHashTableConfig, MEMFLAGS::mtGC>::BucketsOperation", ptr %8, i32 0, i32 0
  %13 = load ptr, ptr %12, align 8
  %14 = getelementptr inbounds %class.ConcurrentHashTable, ptr %13, i32 0, i32 2
  %15 = load ptr, ptr %14, align 8
  call void @_ZN19ConcurrentHashTableI28G1CodeRootSetHashTableConfigL8MEMFLAGS5EE16BucketsOperation20InternalTableClaimerC2EmPNS2_13InternalTableE(ptr noundef nonnull align 8 dereferenceable(24) %11, i64 noundef 12, ptr noundef %15)
  %16 = getelementptr inbounds %"class.ConcurrentHashTable<G1CodeRootSetHashTableConfig, MEMFLAGS::mtGC>::BucketsOperation", ptr %8, i32 0, i32 2
  %17 = load i8, ptr %6, align 1
  %18 = trunc i8 %17 to i1
  %19 = zext i1 %18 to i8
  store i8 %19, ptr %16, align 8
  ret void
}

; Function Attrs: mustprogress nounwind uwtable
define linkonce_odr hidden void @_ZN22G1CodeRootSetHashTable5clearEv(ptr noundef nonnull align 8 dereferenceable(168) %0) #1 comdat align 2 {
  %2 = alloca ptr, align 8
  %3 = alloca %class.anon.25, align 1
  store ptr %0, ptr %2, align 8
  %4 = load ptr, ptr %2, align 8
  call void @_ZN22G1CodeRootSetHashTable5cleanIZNS_5clearEvEUlPP7nmethodE_EEvRT_(ptr noundef nonnull align 8 dereferenceable(168) %4, ptr noundef nonnull align 1 dereferenceable(1) %3)
  ret void
}

; Function Attrs: mustprogress nounwind uwtable
define linkonce_odr hidden void @_ZN19ConcurrentHashTableI28G1CodeRootSetHashTableConfigL8MEMFLAGS5EE8ScanTaskC2EPS2_m(ptr noundef nonnull align 8 dereferenceable(64) %0, ptr noundef %1, i64 noundef %2) unnamed_addr #1 comdat align 2 {
  %4 = alloca ptr, align 8
  %5 = alloca ptr, align 8
  %6 = alloca i64, align 8
  store ptr %0, ptr %4, align 8
  store ptr %1, ptr %5, align 8
  store i64 %2, ptr %6, align 8
  %7 = load ptr, ptr %4, align 8
  %8 = load ptr, ptr %5, align 8
  call void @_ZN19ConcurrentHashTableI28G1CodeRootSetHashTableConfigL8MEMFLAGS5EE16BucketsOperationC2EPS2_b(ptr noundef nonnull align 8 dereferenceable(33) %7, ptr noundef %8, i1 noundef zeroext false)
  %9 = getelementptr inbounds %"class.ConcurrentHashTable<G1CodeRootSetHashTableConfig, MEMFLAGS::mtGC>::ScanTask", ptr %7, i32 0, i32 1
  call void @_ZN19ConcurrentHashTableI28G1CodeRootSetHashTableConfigL8MEMFLAGS5EE16BucketsOperation20InternalTableClaimerC2Ev(ptr noundef nonnull align 8 dereferenceable(24) %9)
  %10 = load ptr, ptr %5, align 8
  %11 = load i64, ptr %6, align 8
  call void @_ZN19ConcurrentHashTableI28G1CodeRootSetHashTableConfigL8MEMFLAGS5EE8ScanTask3setEPS2_m(ptr noundef nonnull align 8 dereferenceable(64) %7, ptr noundef %10, i64 noundef %11)
  ret void
}

; Function Attrs: mustprogress nounwind uwtable
define linkonce_odr hidden void @_ZN19ConcurrentHashTableI28G1CodeRootSetHashTableConfigL8MEMFLAGS5EEC2EN5Mutex4RankEPvmb(ptr noundef nonnull align 8 dereferenceable(88) %0, i32 noundef %1, ptr noundef %2, i64 noundef %3, i1 noundef zeroext %4) unnamed_addr #1 comdat align 2 {
  %6 = alloca ptr, align 8
  %7 = alloca i32, align 4
  %8 = alloca ptr, align 8
  %9 = alloca i64, align 8
  %10 = alloca i8, align 1
  store ptr %0, ptr %6, align 8
  store i32 %1, ptr %7, align 4
  store ptr %2, ptr %8, align 8
  store i64 %3, ptr %9, align 8
  %11 = zext i1 %4 to i8
  store i8 %11, ptr %10, align 1
  %12 = load ptr, ptr %6, align 8
  %13 = load i64, ptr %9, align 8
  %14 = load i8, ptr %10, align 1
  %15 = trunc i8 %14 to i1
  %16 = load i32, ptr %7, align 4
  %17 = load ptr, ptr %8, align 8
  call void @_ZN19ConcurrentHashTableI28G1CodeRootSetHashTableConfigL8MEMFLAGS5EEC2EmmmbN5Mutex4RankEPv(ptr noundef nonnull align 8 dereferenceable(88) %12, i64 noundef %13, i64 noundef 21, i64 noundef 4, i1 noundef zeroext %15, i32 noundef %16, ptr noundef %17)
  ret void
}

; Function Attrs: mustprogress nounwind uwtable
define linkonce_odr hidden noundef i32 @_ZmiN5Mutex4RankEi(i32 noundef %0, i32 noundef %1) #1 comdat {
  %3 = alloca i32, align 4
  %4 = alloca i32, align 4
  %5 = alloca i32, align 4
  store i32 %0, ptr %3, align 4
  store i32 %1, ptr %4, align 4
  %6 = load i32, ptr %3, align 4
  %7 = load i32, ptr %4, align 4
  %8 = sub nsw i32 %6, %7
  store i32 %8, ptr %5, align 4
  %9 = load i32, ptr %5, align 4
  ret i32 %9
}

; Function Attrs: mustprogress nounwind uwtable
define linkonce_odr hidden void @_ZN22G1CodeRootSetHashTableC2Ev(ptr noundef nonnull align 8 dereferenceable(168) %0) unnamed_addr #1 comdat align 2 {
  %2 = alloca ptr, align 8
  store ptr %0, ptr %2, align 8
  %3 = load ptr, ptr %2, align 8
  %4 = getelementptr inbounds %class.G1CodeRootSetHashTable, ptr %3, i32 0, i32 1
  %5 = call noundef i32 @_ZmiN5Mutex4RankEi(i32 noundef 6, i32 noundef 1)
  call void @_ZN19ConcurrentHashTableI28G1CodeRootSetHashTableConfigL8MEMFLAGS5EEC2EN5Mutex4RankEPvmb(ptr noundef nonnull align 8 dereferenceable(88) %4, i32 noundef %5, ptr noundef null, i64 noundef 2, i1 noundef zeroext false)
  %6 = getelementptr inbounds %class.G1CodeRootSetHashTable, ptr %3, i32 0, i32 2
  %7 = getelementptr inbounds %class.G1CodeRootSetHashTable, ptr %3, i32 0, i32 1
  call void @_ZN19ConcurrentHashTableI28G1CodeRootSetHashTableConfigL8MEMFLAGS5EE8ScanTaskC2EPS2_m(ptr noundef nonnull align 8 dereferenceable(64) %6, ptr noundef %7, i64 noundef 16)
  %8 = getelementptr inbounds %class.G1CodeRootSetHashTable, ptr %3, i32 0, i32 3
  store volatile i64 0, ptr %8, align 8
  call void @_ZN22G1CodeRootSetHashTable5clearEv(ptr noundef nonnull align 8 dereferenceable(168) %3)
  ret void
}

; Function Attrs: mustprogress nounwind uwtable
define hidden void @_ZN13G1CodeRootSetC2Ev(ptr noundef nonnull align 8 dereferenceable(8) %0) unnamed_addr #1 align 2 {
  %2 = alloca i64, align 8
  %3 = alloca i8, align 1
  %4 = alloca i64, align 8
  %5 = alloca ptr, align 8
  store ptr %0, ptr %5, align 8
  %6 = load ptr, ptr %5, align 8
  %7 = getelementptr inbounds %class.G1CodeRootSet, ptr %6, i32 0, i32 0
  store i64 168, ptr %4, align 8
  %8 = load i64, ptr %4, align 8
  store i64 %8, ptr %2, align 8
  store i8 5, ptr %3, align 1
  %9 = load i64, ptr %2, align 8
  %10 = load i8, ptr %3, align 1
  %11 = call noundef ptr @_Z12AllocateHeapm8MEMFLAGSN17AllocFailStrategy13AllocFailEnumE(i64 noundef %9, i8 noundef zeroext %10, i32 noundef 0) #7
  call void @_ZN22G1CodeRootSetHashTableC2Ev(ptr noundef nonnull align 8 dereferenceable(168) %11)
  store ptr %11, ptr %7, align 8
  ret void
}