; Function Attrs: mustprogress nounwind uwtable
define hidden void @_ZN13G1CodeRootSetC2Ev(ptr nocapture noundef nonnull writeonly align 8 dereferenceable(8) %0) unnamed_addr #3 align 2 {
  %2 = alloca %class.anon.25, align 1
  %3 = tail call noundef ptr @_Z12AllocateHeapm8MEMFLAGSN17AllocFailStrategy13AllocFailEnumE(i64 noundef 168, i8 noundef zeroext 5, i32 noundef 0) #13
  %4 = getelementptr inbounds i8, ptr %3, i64 8
  tail call void @_ZN19ConcurrentHashTableI28G1CodeRootSetHashTableConfigL8MEMFLAGS5EEC2EmmmbN5Mutex4RankEPv(ptr noundef nonnull align 8 dereferenceable(88) %4, i64 noundef 2, i64 noundef 21, i64 noundef 4, i1 noundef zeroext false, i32 noundef 5, ptr noundef null)
  %5 = getelementptr inbounds i8, ptr %3, i64 96
  store ptr %4, ptr %5, align 8
  %6 = getelementptr inbounds i8, ptr %3, i64 104
  %7 = getelementptr inbounds i8, ptr %3, i64 24
  %8 = load ptr, ptr %7, align 8
  store volatile i64 0, ptr %6, align 8
  %9 = getelementptr inbounds i8, ptr %3, i64 112
  tail call void @llvm.memset.p0.i64(ptr noundef nonnull align 8 dereferenceable(16) %9, i8 0, i64 16, i1 false)
  store volatile i64 0, ptr %6, align 8
  %10 = getelementptr inbounds i8, ptr %8, i64 16
  %11 = load i64, ptr %10, align 8
  store i64 %11, ptr %9, align 8
  %12 = tail call noundef i64 @llvm.umin.i64(i64 %11, i64 12)
  %13 = getelementptr inbounds i8, ptr %3, i64 120
  store i64 %12, ptr %13, align 8
  %14 = getelementptr inbounds i8, ptr %3, i64 128
  store i8 0, ptr %14, align 8
  %15 = getelementptr inbounds i8, ptr %3, i64 136
  store volatile i64 0, ptr %15, align 8
  %16 = getelementptr inbounds i8, ptr %3, i64 144
  tail call void @llvm.memset.p0.i64(ptr noundef nonnull align 8 dereferenceable(16) %16, i8 0, i64 16, i1 false)
  %17 = load volatile ptr, ptr %7, align 8
  tail call void asm sideeffect "", "~{memory},~{dirflag},~{fpsr},~{flags}"() #13, !srcloc !7
  store volatile i64 0, ptr %6, align 8
  %18 = getelementptr inbounds i8, ptr %17, i64 16
  %19 = load i64, ptr %18, align 8
  store i64 %19, ptr %9, align 8
  %20 = tail call noundef i64 @llvm.umin.i64(i64 %19, i64 16)
  store i64 %20, ptr %13, align 8
  %21 = getelementptr inbounds i8, ptr %3, i64 32
  %22 = load volatile ptr, ptr %21, align 8
  tail call void asm sideeffect "", "~{memory},~{dirflag},~{fpsr},~{flags}"() #13, !srcloc !7
  %23 = icmp eq ptr %22, null
  br i1 %23, label %_ZN22G1CodeRootSetHashTableC2Ev.exit, label %24

24:                                               ; preds = %1
  store volatile i64 0, ptr %15, align 8
  %25 = getelementptr inbounds i8, ptr %22, i64 16
  %26 = load i64, ptr %25, align 8
  store i64 %26, ptr %16, align 8
  %27 = tail call noundef i64 @llvm.umin.i64(i64 %26, i64 16)
  %28 = getelementptr inbounds i8, ptr %3, i64 152
  store i64 %27, ptr %28, align 8
  br label %_ZN22G1CodeRootSetHashTableC2Ev.exit

_ZN22G1CodeRootSetHashTableC2Ev.exit:             ; preds = %1, %24
  %29 = getelementptr inbounds i8, ptr %3, i64 160
  store volatile i64 0, ptr %29, align 8
  call void @llvm.lifetime.start.p0(i64 1, ptr nonnull %2)
  call void @_ZN22G1CodeRootSetHashTable5cleanIZNS_5clearEvEUlPP7nmethodE_EEvRT_(ptr noundef nonnull align 8 dereferenceable(168) %3, ptr noundef nonnull align 1 dereferenceable(1) %2)
  call void @llvm.lifetime.end.p0(i64 1, ptr nonnull %2)
  store ptr %3, ptr %0, align 8
  ret void
}